(dp0
Vgeometry
p1
(dp2
Vlocation_type
p3
VAPPROXIMATE
p4
sVbounds
p5
(dp6
Vnortheast
p7
(dp8
Vlat
p9
F49.6394088
sVlng
p10
F7.404583799999999
ssVsouthwest
p11
(dp12
Vlat
p13
F49.1119452
sVlng
p14
F6.357608399999999
sssVviewport
p15
(dp16
Vnortheast
p17
(dp18
Vlat
p19
F49.6394088
sVlng
p20
F7.404583799999999
ssVsouthwest
p21
(dp22
Vlat
p23
F49.1119452
sVlng
p24
F6.357608399999999
sssVlocation
p25
(dp26
Vlat
p27
F49.3964234
sVlng
p28
F7.0229607
sssVformatted_address
p29
VSarre, Allemagne
p30
sVplace_id
p31
VChIJMR-owu-klUcRcHncENXUIgE
p32
sVaddress_components
p33
(lp34
(dp35
Vlong_name
p36
VSarre
p37
sVtypes
p38
(lp39
Vadministrative_area_level_1
p40
aVpolitical
p41
asVshort_name
p42
VSL
p43
sa(dp44
Vlong_name
p45
VAllemagne
p46
sVtypes
p47
(lp48
Vcountry
p49
aVpolitical
p50
asVshort_name
p51
VDE
p52
sasVpartial_match
p53
I01
sVtypes
p54
(lp55
Vadministrative_area_level_1
p56
aVpolitical
p57
as.