(dp0
Vgeometry
p1
(dp2
Vlocation_type
p3
VAPPROXIMATE
p4
sVbounds
p5
(dp6
Vnortheast
p7
(dp8
Vlat
p9
F50.18282
sVlng
p10
F6.530970099999999
ssVsouthwest
p11
(dp12
Vlat
p13
F49.447779
sVlng
p14
F5.7356699
sssVviewport
p15
(dp16
Vnortheast
p17
(dp18
Vlat
p19
F50.18282
sVlng
p20
F6.530970099999999
ssVsouthwest
p21
(dp22
Vlat
p23
F49.447779
sVlng
p24
F5.7356699
sssVlocation
p25
(dp26
Vlat
p27
F49.815273
sVlng
p28
F6.129582999999999
sssVformatted_address
p29
VLuxembourg
p30
sVplace_id
p31
VChIJRyEhyrlFlUcR75LTAvZg22Q
p32
sVaddress_components
p33
(lp34
(dp35
Vlong_name
p36
VLuxembourg
p37
sVtypes
p38
(lp39
Vcountry
p40
aVpolitical
p41
asVshort_name
p42
VLU
p43
sasVpartial_match
p44
I01
sVtypes
p45
(lp46
Vcountry
p47
aVpolitical
p48
as.