(dp0
Vgeometry
p1
(dp2
Vlocation
p3
(dp4
Vlat
p5
F52.4508168
sVlng
p6
F-1.9305135
ssVviewport
p7
(dp8
Vnortheast
p9
(dp10
Vlat
p11
F52.45216578029149
sVlng
p12
F-1.929164519708498
ssVsouthwest
p13
(dp14
Vlat
p15
F52.4494678197085
sVlng
p16
F-1.931862480291502
sssVlocation_type
p17
VGEOMETRIC_CENTER
p18
ssVformatted_address
p19
VBirmingham B15 2TT, Royaume-Uni
p20
sVplace_id
p21
VChIJr8-MAs-9cEgRmjOWESMVs14
p22
sVaddress_components
p23
(lp24
(dp25
Vlong_name
p26
VBirmingham
p27
sVtypes
p28
(lp29
Vpostal_town
p30
asVshort_name
p31
VBirmingham
p32
sa(dp33
Vlong_name
p34
VWest Midlands
p35
sVtypes
p36
(lp37
Vadministrative_area_level_2
p38
aVpolitical
p39
asVshort_name
p40
VWest Midlands
p41
sa(dp42
Vlong_name
p43
VEngland
p44
sVtypes
p45
(lp46
Vadministrative_area_level_1
p47
aVpolitical
p48
asVshort_name
p49
VEngland
p50
sa(dp51
Vlong_name
p52
VRoyaume-Uni
p53
sVtypes
p54
(lp55
Vcountry
p56
aVpolitical
p57
asVshort_name
p58
VGB
p59
sa(dp60
Vlong_name
p61
VB15 2TT
p62
sVtypes
p63
(lp64
Vpostal_code
p65
asVshort_name
p66
VB15 2TT
p67
sasVpartial_match
p68
I01
sVtypes
p69
(lp70
Vestablishment
p71
aVpoint_of_interest
p72
aVuniversity
p73
as.