(dp0
Vgeometry
p1
(dp2
Vlocation
p3
(dp4
Vlat
p5
F50.8406378
sVlng
p6
F4.3383743
ssVviewport
p7
(dp8
Vnortheast
p9
(dp10
Vlat
p11
F50.84198678029149
sVlng
p12
F4.339723280291502
ssVsouthwest
p13
(dp14
Vlat
p15
F50.83928881970849
sVlng
p16
F4.337025319708498
sssVlocation_type
p17
VROOFTOP
p18
ssVformatted_address
p19
VSquare de l'Aviation 29, 1070 Anderlecht, Belgique
p20
sVplace_id
p21
VChIJRUSt1HPEw0cRxaO9ysVtSMw
p22
sVaddress_components
p23
(lp24
(dp25
Vlong_name
p26
V29
p27
sVtypes
p28
(lp29
Vstreet_number
p30
asVshort_name
p31
V29
p32
sa(dp33
Vlong_name
p34
VSquare de l'Aviation
p35
sVtypes
p36
(lp37
Vroute
p38
asVshort_name
p39
VSquare de l'Aviation
p40
sa(dp41
Vlong_name
p42
VCureghem
p43
sVtypes
p44
(lp45
Vpolitical
p46
aVsublocality
p47
aVsublocality_level_1
p48
asVshort_name
p49
VCureghem
p50
sa(dp51
Vlong_name
p52
VAnderlecht
p53
sVtypes
p54
(lp55
Vlocality
p56
aVpolitical
p57
asVshort_name
p58
VAnderlecht
p59
sa(dp60
Vlong_name
p61
VBruxelles
p62
sVtypes
p63
(lp64
Vadministrative_area_level_1
p65
aVpolitical
p66
asVshort_name
p67
VBruxelles
p68
sa(dp69
Vlong_name
p70
VBelgique
p71
sVtypes
p72
(lp73
Vcountry
p74
aVpolitical
p75
asVshort_name
p76
VBE
p77
sa(dp78
Vlong_name
p79
V1070
p80
sVtypes
p81
(lp82
Vpostal_code
p83
asVshort_name
p84
V1070
p85
sasVpartial_match
p86
I01
sVtypes
p87
(lp88
Vestablishment
p89
aVpoint_of_interest
p90
as.