(dp0
Vgeometry
p1
(dp2
Vlocation
p3
(dp4
Vlat
p5
F48.860642
sVlng
p6
F2.352245
ssVviewport
p7
(dp8
Vnortheast
p9
(dp10
Vlat
p11
F48.8619909802915
sVlng
p12
F2.353593980291502
ssVsouthwest
p13
(dp14
Vlat
p15
F48.8592930197085
sVlng
p16
F2.350896019708498
sssVlocation_type
p17
VGEOMETRIC_CENTER
p18
ssVaddress_components
p19
(lp20
(dp21
Vlong_name
p22
VParis
p23
sVtypes
p24
(lp25
Vlocality
p26
aVpolitical
p27
asVshort_name
p28
VParis
p29
sa(dp30
Vlong_name
p31
VFrance
p32
sVtypes
p33
(lp34
Vcountry
p35
aVpolitical
p36
asVshort_name
p37
VFR
p38
sa(dp39
Vlong_name
p40
V75004
p41
sVtypes
p42
(lp43
Vpostal_code
p44
asVshort_name
p45
V75004
p46
sasVplace_id
p47
VChIJoyC4CRxu5kcRRTPcWX5srLc
p48
sVformatted_address
p49
VPlace Georges-Pompidou, 75004 Paris, France
p50
sVtypes
p51
(lp52
Vestablishment
p53
aVmuseum
p54
aVpoint_of_interest
p55
as.