(dp0
Vgeometry
p1
(dp2
Vlocation
p3
(dp4
Vlat
p5
F48.838629
sVlng
p6
F2.300426
ssVviewport
p7
(dp8
Vnortheast
p9
(dp10
Vlat
p11
F48.83997798029151
sVlng
p12
F2.301774980291502
ssVsouthwest
p13
(dp14
Vlat
p15
F48.83728001970851
sVlng
p16
F2.299077019708498
sssVlocation_type
p17
VROOFTOP
p18
ssVaddress_components
p19
(lp20
(dp21
Vlong_name
p22
V4
p23
sVtypes
p24
(lp25
Vstreet_number
p26
asVshort_name
p27
g23
sa(dp28
Vlong_name
p29
VRue d'Alleray
p30
sVtypes
p31
(lp32
Vroute
p33
asVshort_name
p34
VRue d'Alleray
p35
sa(dp36
Vlong_name
p37
VParis
p38
sVtypes
p39
(lp40
Vlocality
p41
aVpolitical
p42
asVshort_name
p43
VParis
p44
sa(dp45
Vlong_name
p46
VFrance
p47
sVtypes
p48
(lp49
Vcountry
p50
aVpolitical
p51
asVshort_name
p52
VFR
p53
sa(dp54
Vlong_name
p55
V75015
p56
sVtypes
p57
(lp58
Vpostal_code
p59
asVshort_name
p60
V75015
p61
sasVplace_id
p62
VChIJ6xZppD9w5kcR0u5mBPr1sKo
p63
sVformatted_address
p64
Vd'Alleray,, 4 Rue d'Alleray, 75015 Paris, France
p65
sVtypes
p66
(lp67
Vestablishment
p68
aVpoint_of_interest
p69
as.