(dp0
Vgeometry
p1
(dp2
Vlocation
p3
(dp4
Vlat
p5
F40.4380788
sVlng
p6
F-3.7037157
ssVviewport
p7
(dp8
Vnortheast
p9
(dp10
Vlat
p11
F40.4394277802915
sVlng
p12
F-3.702366719708497
ssVsouthwest
p13
(dp14
Vlat
p15
F40.4367298197085
sVlng
p16
F-3.705064680291501
sssVlocation_type
p17
VROOFTOP
p18
ssVformatted_address
p19
VCalle de Bravo Murillo, 38, 28015 Madrid, Espagne
p20
sVplace_id
p21
VChIJdcJOSl8oQg0RC2IrecO4B3c
p22
sVaddress_components
p23
(lp24
(dp25
Vlong_name
p26
V38
p27
sVtypes
p28
(lp29
Vstreet_number
p30
asVshort_name
p31
V38
p32
sa(dp33
Vlong_name
p34
VCalle de Bravo Murillo
p35
sVtypes
p36
(lp37
Vroute
p38
asVshort_name
p39
VCalle de Bravo Murillo
p40
sa(dp41
Vlong_name
p42
VMadrid
p43
sVtypes
p44
(lp45
Vlocality
p46
aVpolitical
p47
asVshort_name
p48
VMadrid
p49
sa(dp50
Vlong_name
p51
VMadrid
p52
sVtypes
p53
(lp54
Vadministrative_area_level_2
p55
aVpolitical
p56
asVshort_name
p57
VM
p58
sa(dp59
Vlong_name
p60
VComunidad de Madrid
p61
sVtypes
p62
(lp63
Vadministrative_area_level_1
p64
aVpolitical
p65
asVshort_name
p66
VComunidad de Madrid
p67
sa(dp68
Vlong_name
p69
VEspagne
p70
sVtypes
p71
(lp72
Vcountry
p73
aVpolitical
p74
asVshort_name
p75
VES
p76
sa(dp77
Vlong_name
p78
V28015
p79
sVtypes
p80
(lp81
Vpostal_code
p82
asVshort_name
p83
V28015
p84
sasVpartial_match
p85
I01
sVtypes
p86
(lp87
Vestablishment
p88
aVpoint_of_interest
p89
aVuniversity
p90
as.