(dp0
Vgeometry
p1
(dp2
Vlocation
p3
(dp4
Vlat
p5
F45.751704
sVlng
p6
F4.842461999999999
ssVviewport
p7
(dp8
Vnortheast
p9
(dp10
Vlat
p11
F45.7530529802915
sVlng
p12
F4.843810980291502
ssVsouthwest
p13
(dp14
Vlat
p15
F45.7503550197085
sVlng
p16
F4.841113019708497
sssVlocation_type
p17
VGEOMETRIC_CENTER
p18
ssVformatted_address
p19
V10 bis Rue Jangot, 69007 Lyon, France
p20
sVplace_id
p21
VChIJrW0QikTq9EcRihmpQ8ISolM
p22
sVaddress_components
p23
(lp24
(dp25
Vlong_name
p26
VLyon
p27
sVtypes
p28
(lp29
Vlocality
p30
aVpolitical
p31
asVshort_name
p32
VLyon
p33
sa(dp34
Vlong_name
p35
VFrance
p36
sVtypes
p37
(lp38
Vcountry
p39
aVpolitical
p40
asVshort_name
p41
VFR
p42
sa(dp43
Vlong_name
p44
V69007
p45
sVtypes
p46
(lp47
Vpostal_code
p48
asVshort_name
p49
V69007
p50
sasVpartial_match
p51
I01
sVtypes
p52
(lp53
Vestablishment
p54
aVpoint_of_interest
p55
as.