(dp0
Vgeometry
p1
(dp2
Vlocation
p3
(dp4
Vlat
p5
F48.56573100000001
sVlng
p6
F2.228389
ssVviewport
p7
(dp8
Vnortheast
p9
(dp10
Vlat
p11
F48.56707998029151
sVlng
p12
F2.229737980291502
ssVsouthwest
p13
(dp14
Vlat
p15
F48.56438201970851
sVlng
p16
F2.227040019708498
sssVlocation_type
p17
VROOFTOP
p18
ssVaddress_components
p19
(lp20
(dp21
Vlong_name
p22
V20
p23
sVtypes
p24
(lp25
Vstreet_number
p26
asVshort_name
p27
V20
p28
sa(dp29
Vlong_name
p30
VRue Louise de Vilmorin
p31
sVtypes
p32
(lp33
Vroute
p34
asVshort_name
p35
VRue Louise de Vilmorin
p36
sa(dp37
Vlong_name
p38
VAvrainville
p39
sVtypes
p40
(lp41
Vlocality
p42
aVpolitical
p43
asVshort_name
p44
VAvrainville
p45
sa(dp46
Vlong_name
p47
VFrance
p48
sVtypes
p49
(lp50
Vcountry
p51
aVpolitical
p52
asVshort_name
p53
VFR
p54
sa(dp55
Vlong_name
p56
V91630
p57
sVtypes
p58
(lp59
Vpostal_code
p60
asVshort_name
p61
V91630
p62
sasVplace_id
p63
VChIJdzY2GkPQ5UcRKea-GpLolBo
p64
sVformatted_address
p65
Vdes Marsandes ZA, 20 Rue Louise de Vilmorin, 91630 Avrainville, France
p66
sVtypes
p67
(lp68
Vestablishment
p69
aVpoint_of_interest
p70
as.