(dp0
Vgeometry
p1
(dp2
Vlocation
p3
(dp4
Vlat
p5
F50.84958409999999
sVlng
p6
F4.3640226
ssVviewport
p7
(dp8
Vnortheast
p9
(dp10
Vlat
p11
F50.85093308029149
sVlng
p12
F4.365371580291503
ssVsouthwest
p13
(dp14
Vlat
p15
F50.84823511970849
sVlng
p16
F4.362673619708498
sssVlocation_type
p17
VROOFTOP
p18
ssVformatted_address
p19
VRue Royale 67, 1000 Bruxelles, Belgique
p20
sVplace_id
p21
VChIJJW4IZX7Dw0cRRicIV1FUy3I
p22
sVaddress_components
p23
(lp24
(dp25
Vlong_name
p26
V67
p27
sVtypes
p28
(lp29
Vstreet_number
p30
asVshort_name
p31
V67
p32
sa(dp33
Vlong_name
p34
VRue Royale
p35
sVtypes
p36
(lp37
Vroute
p38
asVshort_name
p39
VRue Royale
p40
sa(dp41
Vlong_name
p42
VBruxelles
p43
sVtypes
p44
(lp45
Vlocality
p46
aVpolitical
p47
asVshort_name
p48
VBruxelles
p49
sa(dp50
Vlong_name
p51
VBruxelles
p52
sVtypes
p53
(lp54
Vadministrative_area_level_1
p55
aVpolitical
p56
asVshort_name
p57
VBruxelles
p58
sa(dp59
Vlong_name
p60
VBelgique
p61
sVtypes
p62
(lp63
Vcountry
p64
aVpolitical
p65
asVshort_name
p66
VBE
p67
sa(dp68
Vlong_name
p69
V1000
p70
sVtypes
p71
(lp72
Vpostal_code
p73
asVshort_name
p74
V1000
p75
sasVpartial_match
p76
I01
sVtypes
p77
(lp78
Vestablishment
p79
aVpoint_of_interest
p80
aVuniversity
p81
as.