(dp0
Vgeometry
p1
(dp2
Vlocation
p3
(dp4
Vlat
p5
F43.3308518
sVlng
p6
F1.9252597
ssVviewport
p7
(dp8
Vnortheast
p9
(dp10
Vlat
p11
F43.33220078029149
sVlng
p12
F1.926608680291502
ssVsouthwest
p13
(dp14
Vlat
p15
F43.3295028197085
sVlng
p16
F1.923910719708498
sssVlocation_type
p17
VGEOMETRIC_CENTER
p18
ssVaddress_components
p19
(lp20
(dp21
Vlong_name
p22
VLa Cassignolette
p23
sVtypes
p24
(lp25
Vroute
p26
asVshort_name
p27
VLa Cassignolette
p28
sa(dp29
Vlong_name
p30
VCastelnaudary
p31
sVtypes
p32
(lp33
Vlocality
p34
aVpolitical
p35
asVshort_name
p36
VCastelnaudary
p37
sa(dp38
Vlong_name
p39
VAude
p40
sVtypes
p41
(lp42
Vadministrative_area_level_2
p43
aVpolitical
p44
asVshort_name
p45
VAude
p46
sa(dp47
Vlong_name
p48
VOccitanie
p49
sVtypes
p50
(lp51
Vadministrative_area_level_1
p52
aVpolitical
p53
asVshort_name
p54
VOccitanie
p55
sa(dp56
Vlong_name
p57
VFrance
p58
sVtypes
p59
(lp60
Vcountry
p61
aVpolitical
p62
asVshort_name
p63
VFR
p64
sa(dp65
Vlong_name
p66
V11400
p67
sVtypes
p68
(lp69
Vpostal_code
p70
asVshort_name
p71
V11400
p72
sasVplace_id
p73
VChIJ9SZdxRVarhIRFJ1haGzH4tQ
p74
sVformatted_address
p75
VLa Cassignolette, 11400 Castelnaudary, France
p76
sVtypes
p77
(lp78
Vestablishment
p79
aVlodging
p80
aVpoint_of_interest
p81
as.