(dp0
Vgeometry
p1
(dp2
Vlocation_type
p3
VGEOMETRIC_CENTER
p4
sVbounds
p5
(dp6
Vnortheast
p7
(dp8
Vlat
p9
F52.0898443
sVlng
p10
F5.1161408
ssVsouthwest
p11
(dp12
Vlat
p13
F52.0865533
sVlng
p14
F5.1128712
sssVviewport
p15
(dp16
Vnortheast
p17
(dp18
Vlat
p19
F52.0898443
sVlng
p20
F5.1161408
ssVsouthwest
p21
(dp22
Vlat
p23
F52.0865533
sVlng
p24
F5.1128712
sssVlocation
p25
(dp26
Vlat
p27
F52.0881601
sVlng
p28
F5.114489799999999
sssVformatted_address
p29
VMoreelsepark, 3511 Utrecht, Pays-Bas
p30
sVplace_id
p31
VChIJXSmsZVxvxkcRLvXiqmAdTVM
p32
sVaddress_components
p33
(lp34
(dp35
Vlong_name
p36
VMoreelsepark
p37
sVtypes
p38
(lp39
Vroute
p40
asVshort_name
p41
VMoreelsepark
p42
sa(dp43
Vlong_name
p44
VBinnenstad
p45
sVtypes
p46
(lp47
Vpolitical
p48
aVsublocality
p49
aVsublocality_level_1
p50
asVshort_name
p51
VBinnenstad
p52
sa(dp53
Vlong_name
p54
VUtrecht
p55
sVtypes
p56
(lp57
Vlocality
p58
aVpolitical
p59
asVshort_name
p60
VUtrecht
p61
sa(dp62
Vlong_name
p63
VUtrecht
p64
sVtypes
p65
(lp66
Vadministrative_area_level_2
p67
aVpolitical
p68
asVshort_name
p69
VUtrecht
p70
sa(dp71
Vlong_name
p72
VUtrecht
p73
sVtypes
p74
(lp75
Vadministrative_area_level_1
p76
aVpolitical
p77
asVshort_name
p78
VUT
p79
sa(dp80
Vlong_name
p81
VPays-Bas
p82
sVtypes
p83
(lp84
Vcountry
p85
aVpolitical
p86
asVshort_name
p87
VNL
p88
sa(dp89
Vlong_name
p90
V3511
p91
sVtypes
p92
(lp93
Vpostal_code
p94
aVpostal_code_prefix
p95
asVshort_name
p96
V3511
p97
sasVpartial_match
p98
I01
sVtypes
p99
(lp100
Vroute
p101
as.