(dp0
Vgeometry
p1
(dp2
Vlocation
p3
(dp4
Vlat
p5
F48.860642
sVlng
p6
F2.352245
ssVviewport
p7
(dp8
Vnortheast
p9
(dp10
Vlat
p11
F48.8619909802915
sVlng
p12
F2.353593980291502
ssVsouthwest
p13
(dp14
Vlat
p15
F48.8592930197085
sVlng
p16
F2.350896019708498
sssVlocation_type
p17
VGEOMETRIC_CENTER
p18
ssVformatted_address
p19
VPlace Georges-Pompidou, 75004 Paris, France
p20
sVplace_id
p21
VChIJoyC4CRxu5kcRRTPcWX5srLc
p22
sVaddress_components
p23
(lp24
(dp25
Vlong_name
p26
VParis
p27
sVtypes
p28
(lp29
Vlocality
p30
aVpolitical
p31
asVshort_name
p32
VParis
p33
sa(dp34
Vlong_name
p35
VFrance
p36
sVtypes
p37
(lp38
Vcountry
p39
aVpolitical
p40
asVshort_name
p41
VFR
p42
sa(dp43
Vlong_name
p44
V75004
p45
sVtypes
p46
(lp47
Vpostal_code
p48
asVshort_name
p49
V75004
p50
sasVpartial_match
p51
I01
sVtypes
p52
(lp53
Vestablishment
p54
aVmuseum
p55
aVpoint_of_interest
p56
as.