(dp0
Vgeometry
p1
(dp2
Vlocation
p3
(dp4
Vlat
p5
F51.5114864
sVlng
p6
F-0.115997
ssVviewport
p7
(dp8
Vnortheast
p9
(dp10
Vlat
p11
F51.5128353802915
sVlng
p12
F-0.114648019708498
ssVsouthwest
p13
(dp14
Vlat
p15
F51.5101374197085
sVlng
p16
F-0.117345980291502
sssVlocation_type
p17
VGEOMETRIC_CENTER
p18
ssVaddress_components
p19
(lp20
(dp21
Vlong_name
p22
VStrand
p23
sVtypes
p24
(lp25
Vroute
p26
asVshort_name
p27
VStrand
p28
sa(dp29
Vlong_name
p30
VLondon
p31
sVtypes
p32
(lp33
Vpostal_town
p34
asVshort_name
p35
VLondon
p36
sa(dp37
Vlong_name
p38
VGreater London
p39
sVtypes
p40
(lp41
Vadministrative_area_level_2
p42
aVpolitical
p43
asVshort_name
p44
VGreater London
p45
sa(dp46
Vlong_name
p47
VEngland
p48
sVtypes
p49
(lp50
Vadministrative_area_level_1
p51
aVpolitical
p52
asVshort_name
p53
VEngland
p54
sa(dp55
Vlong_name
p56
VRoyaume-Uni
p57
sVtypes
p58
(lp59
Vcountry
p60
aVpolitical
p61
asVshort_name
p62
VGB
p63
sa(dp64
Vlong_name
p65
VWC2R 2LS
p66
sVtypes
p67
(lp68
Vpostal_code
p69
asVshort_name
p70
VWC2R 2LS
p71
sasVplace_id
p72
VChIJ3VW0o7UEdkgRjZLQfvs-ZLA
p73
sVformatted_address
p74
VStrand, London WC2R 2LS, Royaume-Uni
p75
sVtypes
p76
(lp77
Vestablishment
p78
aVpoint_of_interest
p79
aVuniversity
p80
as.