(dp0
Vgeometry
p1
(dp2
Vlocation
p3
(dp4
Vlat
p5
F52.3829641
sVlng
p6
F9.7196989
ssVviewport
p7
(dp8
Vnortheast
p9
(dp10
Vlat
p11
F52.38431308029151
sVlng
p12
F9.721047880291502
ssVsouthwest
p13
(dp14
Vlat
p15
F52.38161511970851
sVlng
p16
F9.718349919708498
sssVlocation_type
p17
VROOFTOP
p18
ssVformatted_address
p19
VWelfengarten 1, 30167 Hannover, Allemagne
p20
sVplace_id
p21
VChIJ5x4VQJl0sEcR7mtgwt4nQeo
p22
sVaddress_components
p23
(lp24
(dp25
Vlong_name
p26
V1
p27
sVtypes
p28
(lp29
Vstreet_number
p30
asVshort_name
p31
g27
sa(dp32
Vlong_name
p33
VWelfengarten
p34
sVtypes
p35
(lp36
Vroute
p37
asVshort_name
p38
VWelfengarten
p39
sa(dp40
Vlong_name
p41
VNord
p42
sVtypes
p43
(lp44
Vpolitical
p45
aVsublocality
p46
aVsublocality_level_1
p47
asVshort_name
p48
VNord
p49
sa(dp50
Vlong_name
p51
VHannover
p52
sVtypes
p53
(lp54
Vlocality
p55
aVpolitical
p56
asVshort_name
p57
VHannover
p58
sa(dp59
Vlong_name
p60
VRegion Hannover
p61
sVtypes
p62
(lp63
Vadministrative_area_level_3
p64
aVpolitical
p65
asVshort_name
p66
VRegion Hannover
p67
sa(dp68
Vlong_name
p69
VNiedersachsen
p70
sVtypes
p71
(lp72
Vadministrative_area_level_1
p73
aVpolitical
p74
asVshort_name
p75
VNDS
p76
sa(dp77
Vlong_name
p78
VAllemagne
p79
sVtypes
p80
(lp81
Vcountry
p82
aVpolitical
p83
asVshort_name
p84
VDE
p85
sa(dp86
Vlong_name
p87
V30167
p88
sVtypes
p89
(lp90
Vpostal_code
p91
asVshort_name
p92
V30167
p93
sasVpartial_match
p94
I01
sVtypes
p95
(lp96
Vestablishment
p97
aVpoint_of_interest
p98
aVuniversity
p99
as.