(dp0
Vgeometry
p1
(dp2
Vlocation
p3
(dp4
Vlat
p5
F44.1823411
sVlng
p6
F8.3921046
ssVviewport
p7
(dp8
Vnortheast
p9
(dp10
Vlat
p11
F44.18369008029151
sVlng
p12
F8.393453580291503
ssVsouthwest
p13
(dp14
Vlat
p15
F44.18099211970851
sVlng
p16
F8.390755619708498
sssVlocation_type
p17
VROOFTOP
p18
ssVaddress_components
p19
(lp20
(dp21
Vlong_name
p22
V1
p23
sVtypes
p24
(lp25
Vstreet_number
p26
asVshort_name
p27
g23
sa(dp28
Vlong_name
p29
Vvia Parco degli Ulivi
p30
sVtypes
p31
(lp32
Vroute
p33
asVshort_name
p34
Vvia Parco degli Ulivi
p35
sa(dp36
Vlong_name
p37
VVarigotti
p38
sVtypes
p39
(lp40
Vlocality
p41
aVpolitical
p42
asVshort_name
p43
VVarigotti
p44
sa(dp45
Vlong_name
p46
VFinale ligure
p47
sVtypes
p48
(lp49
Vadministrative_area_level_3
p50
aVpolitical
p51
asVshort_name
p52
VFinale ligure
p53
sa(dp54
Vlong_name
p55
VProvincia di Savona
p56
sVtypes
p57
(lp58
Vadministrative_area_level_2
p59
aVpolitical
p60
asVshort_name
p61
VSV
p62
sa(dp63
Vlong_name
p64
VLiguria
p65
sVtypes
p66
(lp67
Vadministrative_area_level_1
p68
aVpolitical
p69
asVshort_name
p70
VLiguria
p71
sa(dp72
Vlong_name
p73
VItalie
p74
sVtypes
p75
(lp76
Vcountry
p77
aVpolitical
p78
asVshort_name
p79
VIT
p80
sa(dp81
Vlong_name
p82
V17024
p83
sVtypes
p84
(lp85
Vpostal_code
p86
asVshort_name
p87
V17024
p88
sasVplace_id
p89
VChIJwSPls_X70hIRY050IIuOr04
p90
sVformatted_address
p91
Vvia Parco degli Ulivi, 1, 17024 Varigotti SV, Italie
p92
sVtypes
p93
(lp94
Vestablishment
p95
aVpoint_of_interest
p96
aVtravel_agency
p97
as.