(dp0
Vgeometry
p1
(dp2
Vlocation
p3
(dp4
Vlat
p5
F46.5190557
sVlng
p6
F6.5667576
ssVviewport
p7
(dp8
Vnortheast
p9
(dp10
Vlat
p11
F46.52040468029149
sVlng
p12
F6.568106580291502
ssVsouthwest
p13
(dp14
Vlat
p15
F46.5177067197085
sVlng
p16
F6.565408619708498
sssVlocation_type
p17
VGEOMETRIC_CENTER
p18
ssVaddress_components
p19
(lp20
(dp21
Vlong_name
p22
VRoute Cantonale
p23
sVtypes
p24
(lp25
Vroute
p26
asVshort_name
p27
VRoute Cantonale
p28
sa(dp29
Vlong_name
p30
VLausanne
p31
sVtypes
p32
(lp33
Vlocality
p34
aVpolitical
p35
asVshort_name
p36
VLausanne
p37
sa(dp38
Vlong_name
p39
VOuest lausannois
p40
sVtypes
p41
(lp42
Vadministrative_area_level_2
p43
aVpolitical
p44
asVshort_name
p45
VOuest lausannois
p46
sa(dp47
Vlong_name
p48
VVaud
p49
sVtypes
p50
(lp51
Vadministrative_area_level_1
p52
aVpolitical
p53
asVshort_name
p54
VVD
p55
sa(dp56
Vlong_name
p57
VSuisse
p58
sVtypes
p59
(lp60
Vcountry
p61
aVpolitical
p62
asVshort_name
p63
VCH
p64
sa(dp65
Vlong_name
p66
V1015
p67
sVtypes
p68
(lp69
Vpostal_code
p70
asVshort_name
p71
V1015
p72
sasVplace_id
p73
VChIJP6Ls3f0wjEcRcrKTf6s0zLs
p74
sVformatted_address
p75
VRoute Cantonale, 1015 Lausanne, Suisse
p76
sVtypes
p77
(lp78
Vestablishment
p79
aVpoint_of_interest
p80
aVuniversity
p81
as.