(dp0
Vgeometry
p1
(dp2
Vlocation
p3
(dp4
Vlat
p5
F48.4634067
sVlng
p6
F-123.3116935
ssVviewport
p7
(dp8
Vnortheast
p9
(dp10
Vlat
p11
F48.4647556802915
sVlng
p12
F-123.3103445197085
ssVsouthwest
p13
(dp14
Vlat
p15
F48.4620577197085
sVlng
p16
F-123.3130424802915
sssVlocation_type
p17
VROOFTOP
p18
ssVformatted_address
p19
V3800 Finnerty Rd, Victoria, BC V8P 5C2, Canada
p20
sVplace_id
p21
VChIJvQ-FXVdxj1QRdN4eXrjQOcA
p22
sVaddress_components
p23
(lp24
(dp25
Vlong_name
p26
V3800
p27
sVtypes
p28
(lp29
Vstreet_number
p30
asVshort_name
p31
V3800
p32
sa(dp33
Vlong_name
p34
VFinnerty Rd
p35
sVtypes
p36
(lp37
Vroute
p38
asVshort_name
p39
VFinnerty Rd
p40
sa(dp41
Vlong_name
p42
VVictoria
p43
sVtypes
p44
(lp45
Vlocality
p46
aVpolitical
p47
asVshort_name
p48
VVictoria
p49
sa(dp50
Vlong_name
p51
VCapital
p52
sVtypes
p53
(lp54
Vadministrative_area_level_2
p55
aVpolitical
p56
asVshort_name
p57
VCapital
p58
sa(dp59
Vlong_name
p60
VBritish Columbia
p61
sVtypes
p62
(lp63
Vadministrative_area_level_1
p64
aVpolitical
p65
asVshort_name
p66
VBC
p67
sa(dp68
Vlong_name
p69
VCanada
p70
sVtypes
p71
(lp72
Vcountry
p73
aVpolitical
p74
asVshort_name
p75
VCA
p76
sa(dp77
Vlong_name
p78
VV8P 5C2
p79
sVtypes
p80
(lp81
Vpostal_code
p82
asVshort_name
p83
VV8P 5C2
p84
sasVpartial_match
p85
I01
sVtypes
p86
(lp87
Vestablishment
p88
aVpoint_of_interest
p89
aVuniversity
p90
as.