(dp0
Vgeometry
p1
(dp2
Vlocation_type
p3
VAPPROXIMATE
p4
sVbounds
p5
(dp6
Vnortheast
p7
(dp8
Vlat
p9
F52.237855
sVlng
p10
F0.1919273
ssVsouthwest
p11
(dp12
Vlat
p13
F52.1598292
sVlng
p14
F0.048047
sssVviewport
p15
(dp16
Vnortheast
p17
(dp18
Vlat
p19
F52.237855
sVlng
p20
F0.1919273
ssVsouthwest
p21
(dp22
Vlat
p23
F52.1598292
sVlng
p24
F0.048047
sssVlocation
p25
(dp26
Vlat
p27
F52.205337
sVlng
p28
F0.121817
sssVformatted_address
p29
VCambridge, Royaume-Uni
p30
sVplace_id
p31
VChIJLQEq84ld2EcRIT1eo-Ego2M
p32
sVaddress_components
p33
(lp34
(dp35
Vlong_name
p36
VCambridge
p37
sVtypes
p38
(lp39
Vlocality
p40
aVpolitical
p41
asVshort_name
p42
VCambridge
p43
sa(dp44
Vlong_name
p45
VCambridge
p46
sVtypes
p47
(lp48
Vpostal_town
p49
asVshort_name
p50
VCambridge
p51
sa(dp52
Vlong_name
p53
VCambridgeshire
p54
sVtypes
p55
(lp56
Vadministrative_area_level_2
p57
aVpolitical
p58
asVshort_name
p59
VCambridgeshire
p60
sa(dp61
Vlong_name
p62
VAngleterre
p63
sVtypes
p64
(lp65
Vadministrative_area_level_1
p66
aVpolitical
p67
asVshort_name
p68
VAngleterre
p69
sa(dp70
Vlong_name
p71
VRoyaume-Uni
p72
sVtypes
p73
(lp74
Vcountry
p75
aVpolitical
p76
asVshort_name
p77
VGB
p78
sasVpartial_match
p79
I01
sVtypes
p80
(lp81
Vlocality
p82
aVpolitical
p83
as.