(dp0
Vgeometry
p1
(dp2
Vlocation
p3
(dp4
Vlat
p5
F53.405936
sVlng
p6
F-2.9655722
ssVviewport
p7
(dp8
Vnortheast
p9
(dp10
Vlat
p11
F53.40728498029149
sVlng
p12
F-2.964223219708498
ssVsouthwest
p13
(dp14
Vlat
p15
F53.4045870197085
sVlng
p16
F-2.966921180291502
sssVlocation_type
p17
VGEOMETRIC_CENTER
p18
ssVaddress_components
p19
(lp20
(dp21
Vlong_name
p22
VLiverpool
p23
sVtypes
p24
(lp25
Vpostal_town
p26
asVshort_name
p27
VLiverpool
p28
sa(dp29
Vlong_name
p30
VMerseyside
p31
sVtypes
p32
(lp33
Vadministrative_area_level_2
p34
aVpolitical
p35
asVshort_name
p36
VMerseyside
p37
sa(dp38
Vlong_name
p39
VEngland
p40
sVtypes
p41
(lp42
Vadministrative_area_level_1
p43
aVpolitical
p44
asVshort_name
p45
VEngland
p46
sa(dp47
Vlong_name
p48
VRoyaume-Uni
p49
sVtypes
p50
(lp51
Vcountry
p52
aVpolitical
p53
asVshort_name
p54
VGB
p55
sa(dp56
Vlong_name
p57
VL69 3BX
p58
sVtypes
p59
(lp60
Vpostal_code
p61
asVshort_name
p62
VL69 3BX
p63
sasVplace_id
p64
VChIJV0GfmRkhe0gRto83aIXSpC0
p65
sVformatted_address
p66
VLiverpool L69 3BX, Royaume-Uni
p67
sVtypes
p68
(lp69
Vestablishment
p70
aVpoint_of_interest
p71
aVuniversity
p72
as.