(dp0
Vgeometry
p1
(dp2
Vlocation_type
p3
VAPPROXIMATE
p4
sVbounds
p5
(dp6
Vnortheast
p7
(dp8
Vlat
p9
F51.1241999
sVlng
p10
F9.6624999
ssVsouthwest
p11
(dp12
Vlat
p13
F41.3253001
sVlng
p14
F-5.5591
sssVviewport
p15
(dp16
Vnortheast
p17
(dp18
Vlat
p19
F51.1241999
sVlng
p20
F9.6624999
ssVsouthwest
p21
(dp22
Vlat
p23
F41.3253001
sVlng
p24
F-5.5591
sssVlocation
p25
(dp26
Vlat
p27
F46.227638
sVlng
p28
F2.213749
sssVformatted_address
p29
VFrance
p30
sVplace_id
p31
VChIJMVd4MymgVA0R99lHx5Y__Ws
p32
sVaddress_components
p33
(lp34
(dp35
Vlong_name
p36
VFrance
p37
sVtypes
p38
(lp39
Vcountry
p40
aVpolitical
p41
asVshort_name
p42
VFR
p43
sasVpartial_match
p44
I01
sVtypes
p45
(lp46
Vcountry
p47
aVpolitical
p48
as.