(dp0
Vgeometry
p1
(dp2
Vlocation
p3
(dp4
Vlat
p5
F55.8468157
sVlng
p6
F-4.4256122
ssVviewport
p7
(dp8
Vnortheast
p9
(dp10
Vlat
p11
F55.8481646802915
sVlng
p12
F-4.424263219708497
ssVsouthwest
p13
(dp14
Vlat
p15
F55.8454667197085
sVlng
p16
F-4.426961180291502
sssVlocation_type
p17
VROOFTOP
p18
ssVformatted_address
p19
V27C Moss St, Paisley PA1 1DJ, Royaume-Uni
p20
sVplace_id
p21
VChIJlWnOwzdJiEgRV6CdCYBKuNs
p22
sVaddress_components
p23
(lp24
(dp25
Vlong_name
p26
V27C
p27
sVtypes
p28
(lp29
Vstreet_number
p30
asVshort_name
p31
V27C
p32
sa(dp33
Vlong_name
p34
VMoss Street
p35
sVtypes
p36
(lp37
Vroute
p38
asVshort_name
p39
VMoss St
p40
sa(dp41
Vlong_name
p42
VPaisley
p43
sVtypes
p44
(lp45
Vpostal_town
p46
asVshort_name
p47
VPaisley
p48
sa(dp49
Vlong_name
p50
VRenfrewshire
p51
sVtypes
p52
(lp53
Vadministrative_area_level_2
p54
aVpolitical
p55
asVshort_name
p56
VRenfrewshire
p57
sa(dp58
Vlong_name
p59
VScotland
p60
sVtypes
p61
(lp62
Vadministrative_area_level_1
p63
aVpolitical
p64
asVshort_name
p65
VScotland
p66
sa(dp67
Vlong_name
p68
VRoyaume-Uni
p69
sVtypes
p70
(lp71
Vcountry
p72
aVpolitical
p73
asVshort_name
p74
VGB
p75
sa(dp76
Vlong_name
p77
VPA1 1DJ
p78
sVtypes
p79
(lp80
Vpostal_code
p81
asVshort_name
p82
VPA1 1DJ
p83
sasVpartial_match
p84
I01
sVtypes
p85
(lp86
Vestablishment
p87
aVlawyer
p88
aVpoint_of_interest
p89
as.