(dp0
Vgeometry
p1
(dp2
Vlocation_type
p3
VROOFTOP
p4
sVbounds
p5
(dp6
Vnortheast
p7
(dp8
Vlat
p9
F49.8445626
sVlng
p10
F-99.9631324
ssVsouthwest
p11
(dp12
Vlat
p13
F49.844348
sVlng
p14
F-99.9634785
sssVviewport
p15
(dp16
Vnortheast
p17
(dp18
Vlat
p19
F49.84580428029149
sVlng
p20
F-99.9619564697085
ssVsouthwest
p21
(dp22
Vlat
p23
F49.8431063197085
sVlng
p24
F-99.9646544302915
sssVlocation
p25
(dp26
Vlat
p27
F49.844465
sVlng
p28
F-99.96334569999999
sssVformatted_address
p29
VBrandon, MB R7A 6A9, Canada
p30
sVplace_id
p31
VChIJfasW-1aX51IRU0yXZBjQ3L4
p32
sVaddress_components
p33
(lp34
(dp35
Vlong_name
p36
VBrandon
p37
sVtypes
p38
(lp39
Vlocality
p40
aVpolitical
p41
asVshort_name
p42
VBrandon
p43
sa(dp44
Vlong_name
p45
VDivision No 7
p46
sVtypes
p47
(lp48
Vadministrative_area_level_2
p49
aVpolitical
p50
asVshort_name
p51
VDivision No 7
p52
sa(dp53
Vlong_name
p54
VManitoba
p55
sVtypes
p56
(lp57
Vadministrative_area_level_1
p58
aVpolitical
p59
asVshort_name
p60
VMB
p61
sa(dp62
Vlong_name
p63
VCanada
p64
sVtypes
p65
(lp66
Vcountry
p67
aVpolitical
p68
asVshort_name
p69
VCA
p70
sa(dp71
Vlong_name
p72
VR7A 6A9
p73
sVtypes
p74
(lp75
Vpostal_code
p76
asVshort_name
p77
VR7A 6A9
p78
sasVpartial_match
p79
I01
sVtypes
p80
(lp81
Vestablishment
p82
aVpoint_of_interest
p83
aVpremise
p84
as.