(dp0
Vgeometry
p1
(dp2
Vlocation
p3
(dp4
Vlat
p5
F48.117247
sVlng
p6
F-1.704489
ssVviewport
p7
(dp8
Vnortheast
p9
(dp10
Vlat
p11
F48.1185959802915
sVlng
p12
F-1.703140019708498
ssVsouthwest
p13
(dp14
Vlat
p15
F48.1158980197085
sVlng
p16
F-1.705837980291502
sssVlocation_type
p17
VGEOMETRIC_CENTER
p18
ssVaddress_components
p19
(lp20
(dp21
Vlong_name
p22
VRennes
p23
sVtypes
p24
(lp25
Vlocality
p26
aVpolitical
p27
asVshort_name
p28
VRennes
p29
sa(dp30
Vlong_name
p31
VFrance
p32
sVtypes
p33
(lp34
Vcountry
p35
aVpolitical
p36
asVshort_name
p37
VFR
p38
sa(dp39
Vlong_name
p40
V35043
p41
sVtypes
p42
(lp43
Vpostal_code
p44
asVshort_name
p45
V35043
p46
sasVplace_id
p47
VChIJKZOr04TgDkgRhF09BiGNVJc
p48
sVformatted_address
p49
V2 avenue Gaston Berger, CS 24307, 35043 Rennes, France
p50
sVtypes
p51
(lp52
Vestablishment
p53
aVpoint_of_interest
p54
as.