(dp0
Vgeometry
p1
(dp2
Vlocation
p3
(dp4
Vlat
p5
F46.5691622
sVlng
p6
F0.3851563
ssVviewport
p7
(dp8
Vnortheast
p9
(dp10
Vlat
p11
F46.5705111802915
sVlng
p12
F0.3865052802915021
ssVsouthwest
p13
(dp14
Vlat
p15
F46.5678132197085
sVlng
p16
F0.383807319708498
sssVlocation_type
p17
VGEOMETRIC_CENTER
p18
ssVaddress_components
p19
(lp20
(dp21
Vlong_name
p22
VPoitiers
p23
sVtypes
p24
(lp25
Vlocality
p26
aVpolitical
p27
asVshort_name
p28
VPoitiers
p29
sa(dp30
Vlong_name
p31
VVienne
p32
sVtypes
p33
(lp34
Vadministrative_area_level_2
p35
aVpolitical
p36
asVshort_name
p37
VVienne
p38
sa(dp39
Vlong_name
p40
VNouvelle-Aquitaine
p41
sVtypes
p42
(lp43
Vadministrative_area_level_1
p44
aVpolitical
p45
asVshort_name
p46
VNouvelle-Aquitaine
p47
sa(dp48
Vlong_name
p49
VFrance
p50
sVtypes
p51
(lp52
Vcountry
p53
aVpolitical
p54
asVshort_name
p55
VFR
p56
sa(dp57
Vlong_name
p58
V86000
p59
sVtypes
p60
(lp61
Vpostal_code
p62
asVshort_name
p63
V86000
p64
sasVplace_id
p65
VChIJy3IYDsa-_UcRAJHgy7qfmtc
p66
sVformatted_address
p67
V86000 Poitiers, France
p68
sVtypes
p69
(lp70
Vestablishment
p71
aVpoint_of_interest
p72
aVuniversity
p73
as.