(dp0
Vgeometry
p1
(dp2
Vlocation
p3
(dp4
Vlat
p5
F49.8449977
sVlng
p6
F0.9596343
ssVviewport
p7
(dp8
Vnortheast
p9
(dp10
Vlat
p11
F49.8463466802915
sVlng
p12
F0.960983280291502
ssVsouthwest
p13
(dp14
Vlat
p15
F49.8436487197085
sVlng
p16
F0.958285319708498
sssVlocation_type
p17
VGEOMETRIC_CENTER
p18
ssVformatted_address
p19
V11ruelle de L'usine 76730, 76730 Gueures, France
p20
sVplace_id
p21
VChIJ-z7bNaKQ4EcR4SJJ7B7muDc
p22
sVaddress_components
p23
(lp24
(dp25
Vlong_name
p26
VGueures
p27
sVtypes
p28
(lp29
Vlocality
p30
aVpolitical
p31
asVshort_name
p32
VGueures
p33
sa(dp34
Vlong_name
p35
VFrance
p36
sVtypes
p37
(lp38
Vcountry
p39
aVpolitical
p40
asVshort_name
p41
VFR
p42
sa(dp43
Vlong_name
p44
V76730
p45
sVtypes
p46
(lp47
Vpostal_code
p48
asVshort_name
p49
V76730
p50
sasVpartial_match
p51
I01
sVtypes
p52
(lp53
Vestablishment
p54
aVpoint_of_interest
p55
as.