(dp0
Vgeometry
p1
(dp2
Vlocation_type
p3
VAPPROXIMATE
p4
sVbounds
p5
(dp6
Vnortheast
p7
(dp8
Vlat
p9
F50.9533305
sVlng
p10
F-0.4813367
ssVsouthwest
p11
(dp12
Vlat
p13
F50.8852708
sVlng
p14
F-0.5473627999999999
sssVviewport
p15
(dp16
Vnortheast
p17
(dp18
Vlat
p19
F50.9533305
sVlng
p20
F-0.4813367
ssVsouthwest
p21
(dp22
Vlat
p23
F50.8852708
sVlng
p24
F-0.5473627999999999
sssVlocation
p25
(dp26
Vlat
p27
F50.9174551
sVlng
p28
F-0.4963304000000001
sssVaddress_components
p29
(lp30
(dp31
Vlong_name
p32
VParham
p33
sVtypes
p34
(lp35
Vadministrative_area_level_4
p36
aVpolitical
p37
asVshort_name
p38
VParham
p39
sa(dp40
Vlong_name
p41
VWest Sussex
p42
sVtypes
p43
(lp44
Vadministrative_area_level_2
p45
aVpolitical
p46
asVshort_name
p47
VWest Sussex
p48
sa(dp49
Vlong_name
p50
VEngland
p51
sVtypes
p52
(lp53
Vadministrative_area_level_1
p54
aVpolitical
p55
asVshort_name
p56
VEngland
p57
sa(dp58
Vlong_name
p59
VRoyaume-Uni
p60
sVtypes
p61
(lp62
Vcountry
p63
aVpolitical
p64
asVshort_name
p65
VGB
p66
sasVplace_id
p67
VChIJ8Tt7cC66dUgRwHntoi2uDgU
p68
sVformatted_address
p69
VParham, Royaume-Uni
p70
sVtypes
p71
(lp72
Vadministrative_area_level_4
p73
aVpolitical
p74
as.