(dp0
Vgeometry
p1
(dp2
Vlocation_type
p3
VAPPROXIMATE
p4
sVbounds
p5
(dp6
Vnortheast
p7
(dp8
Vlat
p9
F48.90094209999999
sVlng
p10
F-1.015621
ssVsouthwest
p11
(dp12
Vlat
p13
F47.27785290000001
sVlng
p14
F-5.141292099999999
sssVviewport
p15
(dp16
Vnortheast
p17
(dp18
Vlat
p19
F48.90094209999999
sVlng
p20
F-1.015621
ssVsouthwest
p21
(dp22
Vlat
p23
F47.27785290000001
sVlng
p24
F-5.141292099999999
sssVlocation
p25
(dp26
Vlat
p27
F48.2020471
sVlng
p28
F-2.9326435
sssVformatted_address
p29
VBretagne, France
p30
sVplace_id
p31
VChIJr45-rmHKEUgRsCTfNs2lDAE
p32
sVaddress_components
p33
(lp34
(dp35
Vlong_name
p36
VBretagne
p37
sVtypes
p38
(lp39
Vadministrative_area_level_1
p40
aVpolitical
p41
asVshort_name
p42
VBretagne
p43
sa(dp44
Vlong_name
p45
VFrance
p46
sVtypes
p47
(lp48
Vcountry
p49
aVpolitical
p50
asVshort_name
p51
VFR
p52
sasVpartial_match
p53
I01
sVtypes
p54
(lp55
Vadministrative_area_level_1
p56
aVpolitical
p57
as.