(dp0
Vgeometry
p1
(dp2
Vlocation
p3
(dp4
Vlat
p5
F51.7548164
sVlng
p6
F-1.2543668
ssVviewport
p7
(dp8
Vnortheast
p9
(dp10
Vlat
p11
F51.75616538029149
sVlng
p12
F-1.253017819708498
ssVsouthwest
p13
(dp14
Vlat
p15
F51.75346741970849
sVlng
p16
F-1.255715780291502
sssVlocation_type
p17
VGEOMETRIC_CENTER
p18
ssVformatted_address
p19
VOxford OX1 2JD, Royaume-Uni
p20
sVplace_id
p21
VChIJW0iM76nGdkgR7a8BoIMY_9I
p22
sVaddress_components
p23
(lp24
(dp25
Vlong_name
p26
VOxford
p27
sVtypes
p28
(lp29
Vpostal_town
p30
asVshort_name
p31
VOxford
p32
sa(dp33
Vlong_name
p34
VOxfordshire
p35
sVtypes
p36
(lp37
Vadministrative_area_level_2
p38
aVpolitical
p39
asVshort_name
p40
VOxfordshire
p41
sa(dp42
Vlong_name
p43
VEngland
p44
sVtypes
p45
(lp46
Vadministrative_area_level_1
p47
aVpolitical
p48
asVshort_name
p49
VEngland
p50
sa(dp51
Vlong_name
p52
VRoyaume-Uni
p53
sVtypes
p54
(lp55
Vcountry
p56
aVpolitical
p57
asVshort_name
p58
VGB
p59
sa(dp60
Vlong_name
p61
VOX1 2JD
p62
sVtypes
p63
(lp64
Vpostal_code
p65
asVshort_name
p66
VOX1 2JD
p67
sasVpartial_match
p68
I01
sVtypes
p69
(lp70
Vestablishment
p71
aVpoint_of_interest
p72
aVuniversity
p73
as.