(dp0
Vgeometry
p1
(dp2
Vlocation
p3
(dp4
Vlat
p5
F43.6386904
sVlng
p6
F-79.4261987
ssVviewport
p7
(dp8
Vnortheast
p9
(dp10
Vlat
p11
F43.6400393802915
sVlng
p12
F-79.42484971970849
ssVsouthwest
p13
(dp14
Vlat
p15
F43.63734141970851
sVlng
p16
F-79.4275476802915
sssVlocation_type
p17
VROOFTOP
p18
ssVformatted_address
p19
V96 Mowat Ave, Toronto, ON M6K 3L7, Canada
p20
sVplace_id
p21
VChIJW07E8Kk1K4gRvxJL1vbu3g4
p22
sVaddress_components
p23
(lp24
(dp25
Vlong_name
p26
V96
p27
sVtypes
p28
(lp29
Vstreet_number
p30
asVshort_name
p31
V96
p32
sa(dp33
Vlong_name
p34
VMowat Avenue
p35
sVtypes
p36
(lp37
Vroute
p38
asVshort_name
p39
VMowat Ave
p40
sa(dp41
Vlong_name
p42
VOld Toronto
p43
sVtypes
p44
(lp45
Vpolitical
p46
aVsublocality
p47
aVsublocality_level_1
p48
asVshort_name
p49
VOld Toronto
p50
sa(dp51
Vlong_name
p52
VToronto
p53
sVtypes
p54
(lp55
Vlocality
p56
aVpolitical
p57
asVshort_name
p58
VToronto
p59
sa(dp60
Vlong_name
p61
VToronto Division
p62
sVtypes
p63
(lp64
Vadministrative_area_level_2
p65
aVpolitical
p66
asVshort_name
p67
VToronto Division
p68
sa(dp69
Vlong_name
p70
VOntario
p71
sVtypes
p72
(lp73
Vadministrative_area_level_1
p74
aVpolitical
p75
asVshort_name
p76
VON
p77
sa(dp78
Vlong_name
p79
VCanada
p80
sVtypes
p81
(lp82
Vcountry
p83
aVpolitical
p84
asVshort_name
p85
VCA
p86
sa(dp87
Vlong_name
p88
VM6K 3L7
p89
sVtypes
p90
(lp91
Vpostal_code
p92
asVshort_name
p93
VM6K 3L7
p94
sasVpartial_match
p95
I01
sVtypes
p96
(lp97
Vstreet_address
p98
as.