(dp0
Vgeometry
p1
(dp2
Vlocation
p3
(dp4
Vlat
p5
F50.86708950000001
sVlng
p6
F-0.08791399999999999
ssVviewport
p7
(dp8
Vnortheast
p9
(dp10
Vlat
p11
F50.86843848029151
sVlng
p12
F-0.08656501970849796
ssVsouthwest
p13
(dp14
Vlat
p15
F50.86574051970851
sVlng
p16
F-0.08926298029150202
sssVlocation_type
p17
VGEOMETRIC_CENTER
p18
ssVaddress_components
p19
(lp20
(dp21
Vlong_name
p22
VFalmer
p23
sVtypes
p24
(lp25
Vlocality
p26
aVpolitical
p27
asVshort_name
p28
VFalmer
p29
sa(dp30
Vlong_name
p31
VBrighton
p32
sVtypes
p33
(lp34
Vpostal_town
p35
asVshort_name
p36
VBrighton
p37
sa(dp38
Vlong_name
p39
VThe City of Brighton and Hove
p40
sVtypes
p41
(lp42
Vadministrative_area_level_2
p43
aVpolitical
p44
asVshort_name
p45
VThe City of Brighton and Hove
p46
sa(dp47
Vlong_name
p48
VAngleterre
p49
sVtypes
p50
(lp51
Vadministrative_area_level_1
p52
aVpolitical
p53
asVshort_name
p54
VAngleterre
p55
sa(dp56
Vlong_name
p57
VRoyaume-Uni
p58
sVtypes
p59
(lp60
Vcountry
p61
aVpolitical
p62
asVshort_name
p63
VGB
p64
sa(dp65
Vlong_name
p66
VBN1 9RH
p67
sVtypes
p68
(lp69
Vpostal_code
p70
asVshort_name
p71
VBN1 9RH
p72
sasVplace_id
p73
VChIJGxt8m8qIdUgRc9JqzSShS3s
p74
sVformatted_address
p75
VFalmer, Brighton BN1 9RH, Royaume-Uni
p76
sVtypes
p77
(lp78
Vestablishment
p79
aVpoint_of_interest
p80
aVuniversity
p81
as.