(dp0
Vgeometry
p1
(dp2
Vlocation
p3
(dp4
Vlat
p5
F-30.4730963
sVlng
p6
F149.6612155
ssVviewport
p7
(dp8
Vnortheast
p9
(dp10
Vlat
p11
F-30.4717473197085
sVlng
p12
F149.6625644802915
ssVsouthwest
p13
(dp14
Vlat
p15
F-30.47444528029149
sVlng
p16
F149.6598665197085
sssVlocation_type
p17
VROOFTOP
p18
ssVformatted_address
p19
VUniversity of Sydney, 9836 Newell Hwy, Bohena Creek NSW 2390, Australie
p20
sVplace_id
p21
VChIJC76zQX9Pp2sRbJgsTQp1pIw
p22
sVaddress_components
p23
(lp24
(dp25
Vlong_name
p26
VUniversity of Sydney
p27
sVtypes
p28
(lp29
Vpremise
p30
asVshort_name
p31
VUniversity of Sydney
p32
sa(dp33
Vlong_name
p34
V9836
p35
sVtypes
p36
(lp37
Vstreet_number
p38
asVshort_name
p39
V9836
p40
sa(dp41
Vlong_name
p42
VNewell Highway
p43
sVtypes
p44
(lp45
Vroute
p46
asVshort_name
p47
VNewell Hwy
p48
sa(dp49
Vlong_name
p50
VBohena Creek
p51
sVtypes
p52
(lp53
Vlocality
p54
aVpolitical
p55
asVshort_name
p56
VBohena Creek
p57
sa(dp58
Vlong_name
p59
VNarrabri Shire Council
p60
sVtypes
p61
(lp62
Vadministrative_area_level_2
p63
aVpolitical
p64
asVshort_name
p65
VNarrabri
p66
sa(dp67
Vlong_name
p68
VNew South Wales
p69
sVtypes
p70
(lp71
Vadministrative_area_level_1
p72
aVpolitical
p73
asVshort_name
p74
VNSW
p75
sa(dp76
Vlong_name
p77
VAustralie
p78
sVtypes
p79
(lp80
Vcountry
p81
aVpolitical
p82
asVshort_name
p83
VAU
p84
sa(dp85
Vlong_name
p86
V2390
p87
sVtypes
p88
(lp89
Vpostal_code
p90
asVshort_name
p91
V2390
p92
sasVpartial_match
p93
I01
sVtypes
p94
(lp95
Vstreet_address
p96
as.