(dp0
Vgeometry
p1
(dp2
Vlocation
p3
(dp4
Vlat
p5
F44.795412
sVlng
p6
F-0.6163179999999999
ssVviewport
p7
(dp8
Vnortheast
p9
(dp10
Vlat
p11
F44.7967609802915
sVlng
p12
F-0.6149690197084979
ssVsouthwest
p13
(dp14
Vlat
p15
F44.7940630197085
sVlng
p16
F-0.617666980291502
sssVlocation_type
p17
VGEOMETRIC_CENTER
p18
ssVformatted_address
p19
VDomaine Universitaire, 19 esplanade des Antilles, 33607 Pessac, France
p20
sVplace_id
p21
VChIJe0y8BJXYVA0RTG-op23URU4
p22
sVaddress_components
p23
(lp24
(dp25
Vlong_name
p26
VPessac
p27
sVtypes
p28
(lp29
Vlocality
p30
aVpolitical
p31
asVshort_name
p32
VPessac
p33
sa(dp34
Vlong_name
p35
VFrance
p36
sVtypes
p37
(lp38
Vcountry
p39
aVpolitical
p40
asVshort_name
p41
VFR
p42
sa(dp43
Vlong_name
p44
V33607
p45
sVtypes
p46
(lp47
Vpostal_code
p48
asVshort_name
p49
V33607
p50
sasVpartial_match
p51
I01
sVtypes
p52
(lp53
Vestablishment
p54
aVpoint_of_interest
p55
aVuniversity
p56
as.