(dp0
Vgeometry
p1
(dp2
Vlocation
p3
(dp4
Vlat
p5
F49.8761492
sVlng
p6
F2.2655255
ssVviewport
p7
(dp8
Vnortheast
p9
(dp10
Vlat
p11
F49.8774981802915
sVlng
p12
F2.266874480291502
ssVsouthwest
p13
(dp14
Vlat
p15
F49.8748002197085
sVlng
p16
F2.264176519708498
sssVlocation_type
p17
VGEOMETRIC_CENTER
p18
ssVaddress_components
p19
(lp20
(dp21
Vlong_name
p22
VAmiens
p23
sVtypes
p24
(lp25
Vlocality
p26
aVpolitical
p27
asVshort_name
p28
VAmiens
p29
sa(dp30
Vlong_name
p31
VFrance
p32
sVtypes
p33
(lp34
Vcountry
p35
aVpolitical
p36
asVshort_name
p37
VFR
p38
sa(dp39
Vlong_name
p40
V80025
p41
sVtypes
p42
(lp43
Vpostal_code
p44
asVshort_name
p45
V80025
p46
sasVplace_id
p47
VChIJO77v0YGD50cRu5-X75y9QVc
p48
sVformatted_address
p49
VCS 52501 80025 Cedex, Chemin du Thil, 80025 Amiens, France
p50
sVtypes
p51
(lp52
Vestablishment
p53
aVpoint_of_interest
p54
aVuniversity
p55
as.