(dp0
Vgeometry
p1
(dp2
Vlocation
p3
(dp4
Vlat
p5
F51.0465619
sVlng
p6
F3.727918099999999
ssVviewport
p7
(dp8
Vnortheast
p9
(dp10
Vlat
p11
F51.0479108802915
sVlng
p12
F3.729267080291502
ssVsouthwest
p13
(dp14
Vlat
p15
F51.0452129197085
sVlng
p16
F3.726569119708497
sssVlocation_type
p17
VROOFTOP
p18
ssVaddress_components
p19
(lp20
(dp21
Vlong_name
p22
V33
p23
sVtypes
p24
(lp25
Vstreet_number
p26
asVshort_name
p27
V33
p28
sa(dp29
Vlong_name
p30
VSt. Pietersnieuwstraat
p31
sVtypes
p32
(lp33
Vroute
p34
asVshort_name
p35
VSt. Pietersnieuwstraat
p36
sa(dp37
Vlong_name
p38
VGent
p39
sVtypes
p40
(lp41
Vlocality
p42
aVpolitical
p43
asVshort_name
p44
VGent
p45
sa(dp46
Vlong_name
p47
VOost-Vlaanderen
p48
sVtypes
p49
(lp50
Vadministrative_area_level_2
p51
aVpolitical
p52
asVshort_name
p53
VOV
p54
sa(dp55
Vlong_name
p56
VVlaanderen
p57
sVtypes
p58
(lp59
Vadministrative_area_level_1
p60
aVpolitical
p61
asVshort_name
p62
VVlaanderen
p63
sa(dp64
Vlong_name
p65
VBelgique
p66
sVtypes
p67
(lp68
Vcountry
p69
aVpolitical
p70
asVshort_name
p71
VBE
p72
sa(dp73
Vlong_name
p74
V9000
p75
sVtypes
p76
(lp77
Vpostal_code
p78
asVshort_name
p79
V9000
p80
sasVplace_id
p81
VChIJP_Kmegh0w0cRg0cQjgEi89c
p82
sVformatted_address
p83
VSt. Pietersnieuwstraat 33, 9000 Gent, Belgique
p84
sVtypes
p85
(lp86
Vestablishment
p87
aVpoint_of_interest
p88
aVuniversity
p89
as.