(dp0
Vgeometry
p1
(dp2
Vlocation
p3
(dp4
Vlat
p5
F48.1179154
sVlng
p6
F-1.7028658
ssVviewport
p7
(dp8
Vnortheast
p9
(dp10
Vlat
p11
F48.1192643802915
sVlng
p12
F-1.701516819708498
ssVsouthwest
p13
(dp14
Vlat
p15
F48.11656641970851
sVlng
p16
F-1.704214780291502
sssVlocation_type
p17
VGEOMETRIC_CENTER
p18
ssVformatted_address
p19
VPlace Recteur Henri Le Moal, 35000 Rennes, France
p20
sVplace_id
p21
VChIJYyllB5_gDkgR4_2G5uDh_-0
p22
sVaddress_components
p23
(lp24
(dp25
Vlong_name
p26
VPlace Recteur Henri Le Moal
p27
sVtypes
p28
(lp29
Vroute
p30
asVshort_name
p31
VPlace Recteur Henri Le Moal
p32
sa(dp33
Vlong_name
p34
VRennes
p35
sVtypes
p36
(lp37
Vlocality
p38
aVpolitical
p39
asVshort_name
p40
VRennes
p41
sa(dp42
Vlong_name
p43
VIlle-et-Vilaine
p44
sVtypes
p45
(lp46
Vadministrative_area_level_2
p47
aVpolitical
p48
asVshort_name
p49
VIlle-et-Vilaine
p50
sa(dp51
Vlong_name
p52
VBretagne
p53
sVtypes
p54
(lp55
Vadministrative_area_level_1
p56
aVpolitical
p57
asVshort_name
p58
VBretagne
p59
sa(dp60
Vlong_name
p61
VFrance
p62
sVtypes
p63
(lp64
Vcountry
p65
aVpolitical
p66
asVshort_name
p67
VFR
p68
sa(dp69
Vlong_name
p70
V35000
p71
sVtypes
p72
(lp73
Vpostal_code
p74
asVshort_name
p75
V35000
p76
sasVpartial_match
p77
I01
sVtypes
p78
(lp79
Vestablishment
p80
aVpoint_of_interest
p81
aVuniversity
p82
as.