(dp0
Vgeometry
p1
(dp2
Vlocation
p3
(dp4
Vlat
p5
F43.5320995
sVlng
p6
F-80.2268613
ssVviewport
p7
(dp8
Vnortheast
p9
(dp10
Vlat
p11
F43.5334484802915
sVlng
p12
F-80.22551231970849
ssVsouthwest
p13
(dp14
Vlat
p15
F43.5307505197085
sVlng
p16
F-80.2282102802915
sssVlocation_type
p17
VROOFTOP
p18
ssVaddress_components
p19
(lp20
(dp21
Vlong_name
p22
V50
p23
sVtypes
p24
(lp25
Vstreet_number
p26
asVshort_name
p27
V50
p28
sa(dp29
Vlong_name
p30
VStone Road East
p31
sVtypes
p32
(lp33
Vroute
p34
asVshort_name
p35
VStone Road East
p36
sa(dp37
Vlong_name
p38
VGuelph
p39
sVtypes
p40
(lp41
Vlocality
p42
aVpolitical
p43
asVshort_name
p44
VGuelph
p45
sa(dp46
Vlong_name
p47
VWellington County
p48
sVtypes
p49
(lp50
Vadministrative_area_level_2
p51
aVpolitical
p52
asVshort_name
p53
VWellington County
p54
sa(dp55
Vlong_name
p56
VOntario
p57
sVtypes
p58
(lp59
Vadministrative_area_level_1
p60
aVpolitical
p61
asVshort_name
p62
VON
p63
sa(dp64
Vlong_name
p65
VCanada
p66
sVtypes
p67
(lp68
Vcountry
p69
aVpolitical
p70
asVshort_name
p71
VCA
p72
sa(dp73
Vlong_name
p74
VN1G 2W1
p75
sVtypes
p76
(lp77
Vpostal_code
p78
asVshort_name
p79
VN1G 2W1
p80
sasVplace_id
p81
VChIJt6A4HTybK4gRxxNATeWZ648
p82
sVformatted_address
p83
V50 Stone Road East, Guelph, ON N1G 2W1, Canada
p84
sVtypes
p85
(lp86
Vestablishment
p87
aVpoint_of_interest
p88
aVuniversity
p89
as.