(dp0
Vgeometry
p1
(dp2
Vlocation
p3
(dp4
Vlat
p5
F47.0447631
sVlng
p6
F21.9181616
ssVviewport
p7
(dp8
Vnortheast
p9
(dp10
Vlat
p11
F47.04611208029149
sVlng
p12
F21.9195105802915
ssVsouthwest
p13
(dp14
Vlat
p15
F47.04341411970849
sVlng
p16
F21.91681261970849
sssVlocation_type
p17
VGEOMETRIC_CENTER
p18
ssVformatted_address
p19
VCampus Universitar, Oradea, Roumanie
p20
sVplace_id
p21
VChIJRxjYZJVHRkcRaQjqvPHMl9o
p22
sVaddress_components
p23
(lp24
(dp25
Vlong_name
p26
VCampus Universitar
p27
sVtypes
p28
(lp29
Vroute
p30
asVshort_name
p31
VCampus Universitar
p32
sa(dp33
Vlong_name
p34
VOradea
p35
sVtypes
p36
(lp37
Vlocality
p38
aVpolitical
p39
asVshort_name
p40
VOradea
p41
sa(dp42
Vlong_name
p43
VMunicipiul Oradea
p44
sVtypes
p45
(lp46
Vadministrative_area_level_2
p47
aVpolitical
p48
asVshort_name
p49
VMunicipiul Oradea
p50
sa(dp51
Vlong_name
p52
VJude\u021bul Bihor
p53
sVtypes
p54
(lp55
Vadministrative_area_level_1
p56
aVpolitical
p57
asVshort_name
p58
VBH
p59
sa(dp60
Vlong_name
p61
VRoumanie
p62
sVtypes
p63
(lp64
Vcountry
p65
aVpolitical
p66
asVshort_name
p67
VRO
p68
sasVpartial_match
p69
I01
sVtypes
p70
(lp71
Vestablishment
p72
aVpoint_of_interest
p73
aVuniversity
p74
as.