(dp0
Vgeometry
p1
(dp2
Vlocation
p3
(dp4
Vlat
p5
F-33.888584
sVlng
p6
F151.1873473
ssVviewport
p7
(dp8
Vnortheast
p9
(dp10
Vlat
p11
F-33.88723501970851
sVlng
p12
F151.1886962802915
ssVsouthwest
p13
(dp14
Vlat
p15
F-33.8899329802915
sVlng
p16
F151.1859983197085
sssVlocation_type
p17
VGEOMETRIC_CENTER
p18
ssVaddress_components
p19
(lp20
(dp21
Vlong_name
p22
VNouvelle-Galles du Sud
p23
sVtypes
p24
(lp25
Vadministrative_area_level_1
p26
aVpolitical
p27
asVshort_name
p28
VNSW
p29
sa(dp30
Vlong_name
p31
VCamperdown
p32
sVtypes
p33
(lp34
Vlocality
p35
aVpolitical
p36
asVshort_name
p37
VCamperdown
p38
sa(dp39
Vlong_name
p40
VCouncil of the City of Sydney
p41
sVtypes
p42
(lp43
Vadministrative_area_level_2
p44
aVpolitical
p45
asVshort_name
p46
VSydney
p47
sa(dp48
Vlong_name
p49
VAustralie
p50
sVtypes
p51
(lp52
Vcountry
p53
aVpolitical
p54
asVshort_name
p55
VAU
p56
sa(dp57
Vlong_name
p58
V2006
p59
sVtypes
p60
(lp61
Vpostal_code
p62
asVshort_name
p63
V2006
p64
sasVplace_id
p65
VChIJ2fGeq9SxEmsRwAd6A2l9AR0
p66
sVformatted_address
p67
VCamperdown Nouvelle-Galles du Sud 2006, Australie
p68
sVtypes
p69
(lp70
Vestablishment
p71
aVpoint_of_interest
p72
aVuniversity
p73
as.