(dp0
Vgeometry
p1
(dp2
Vlocation
p3
(dp4
Vlat
p5
F52.0901527
sVlng
p6
F5.1226018
ssVviewport
p7
(dp8
Vnortheast
p9
(dp10
Vlat
p11
F52.0915016802915
sVlng
p12
F5.123950780291502
ssVsouthwest
p13
(dp14
Vlat
p15
F52.0888037197085
sVlng
p16
F5.121252819708498
sssVlocation_type
p17
VROOFTOP
p18
ssVformatted_address
p19
VDomplein 29, 3512 JE Utrecht, Pays-Bas
p20
sVplace_id
p21
VChIJiW8TVFBvxkcRNlvU-qGhNNc
p22
sVaddress_components
p23
(lp24
(dp25
Vlong_name
p26
V29
p27
sVtypes
p28
(lp29
Vstreet_number
p30
asVshort_name
p31
V29
p32
sa(dp33
Vlong_name
p34
VDomplein
p35
sVtypes
p36
(lp37
Vroute
p38
asVshort_name
p39
VDomplein
p40
sa(dp41
Vlong_name
p42
VUtrecht
p43
sVtypes
p44
(lp45
Vlocality
p46
aVpolitical
p47
asVshort_name
p48
VUtrecht
p49
sa(dp50
Vlong_name
p51
VUtrecht
p52
sVtypes
p53
(lp54
Vadministrative_area_level_2
p55
aVpolitical
p56
asVshort_name
p57
VUtrecht
p58
sa(dp59
Vlong_name
p60
VUtrecht
p61
sVtypes
p62
(lp63
Vadministrative_area_level_1
p64
aVpolitical
p65
asVshort_name
p66
VUT
p67
sa(dp68
Vlong_name
p69
VPays-Bas
p70
sVtypes
p71
(lp72
Vcountry
p73
aVpolitical
p74
asVshort_name
p75
VNL
p76
sa(dp77
Vlong_name
p78
V3512 JE
p79
sVtypes
p80
(lp81
Vpostal_code
p82
asVshort_name
p83
V3512 JE
p84
sasVpartial_match
p85
I01
sVtypes
p86
(lp87
Vestablishment
p88
aVpoint_of_interest
p89
aVuniversity
p90
as.