(dp0
Vgeometry
p1
(dp2
Vlocation_type
p3
VAPPROXIMATE
p4
sVbounds
p5
(dp6
Vnortheast
p7
(dp8
Vlat
p9
F43.8504
sVlng
p10
F4.6362
ssVsouthwest
p11
(dp12
Vlat
p13
F27.4985
sVlng
p14
F-18.2648001
sssVviewport
p15
(dp16
Vnortheast
p17
(dp18
Vlat
p19
F45.244
sVlng
p20
F5.098
ssVsouthwest
p21
(dp22
Vlat
p23
F35.17300000000001
sVlng
p24
F-12.524
sssVlocation
p25
(dp26
Vlat
p27
F40.46366700000001
sVlng
p28
F-3.74922
sssVformatted_address
p29
VEspagne
p30
sVplace_id
p31
VChIJi7xhMnjjQgwR7KNoB5Qs7KY
p32
sVaddress_components
p33
(lp34
(dp35
Vlong_name
p36
VEspagne
p37
sVtypes
p38
(lp39
Vcountry
p40
aVpolitical
p41
asVshort_name
p42
VES
p43
sasVpartial_match
p44
I01
sVtypes
p45
(lp46
Vcountry
p47
aVpolitical
p48
as.