(dp0
Vgeometry
p1
(dp2
Vlocation
p3
(dp4
Vlat
p5
F45.8858609
sVlng
p6
F12.2926733
ssVviewport
p7
(dp8
Vnortheast
p9
(dp10
Vlat
p11
F45.8872098802915
sVlng
p12
F12.2940222802915
ssVsouthwest
p13
(dp14
Vlat
p15
F45.8845119197085
sVlng
p16
F12.2913243197085
sssVlocation_type
p17
VGEOMETRIC_CENTER
p18
ssVformatted_address
p19
VVia P. Caronelli, 31015 Conegliano TV, Italie
p20
sVplace_id
p21
VChIJu6SYKgEVeUcRexgWxrGhsHY
p22
sVaddress_components
p23
(lp24
(dp25
Vlong_name
p26
VVia P. Caronelli
p27
sVtypes
p28
(lp29
Vroute
p30
asVshort_name
p31
VVia P. Caronelli
p32
sa(dp33
Vlong_name
p34
VConegliano
p35
sVtypes
p36
(lp37
Vlocality
p38
aVpolitical
p39
asVshort_name
p40
VConegliano
p41
sa(dp42
Vlong_name
p43
VConegliano
p44
sVtypes
p45
(lp46
Vadministrative_area_level_3
p47
aVpolitical
p48
asVshort_name
p49
VConegliano
p50
sa(dp51
Vlong_name
p52
VProvincia di Treviso
p53
sVtypes
p54
(lp55
Vadministrative_area_level_2
p56
aVpolitical
p57
asVshort_name
p58
VTV
p59
sa(dp60
Vlong_name
p61
VVeneto
p62
sVtypes
p63
(lp64
Vadministrative_area_level_1
p65
aVpolitical
p66
asVshort_name
p67
VVeneto
p68
sa(dp69
Vlong_name
p70
VItalie
p71
sVtypes
p72
(lp73
Vcountry
p74
aVpolitical
p75
asVshort_name
p76
VIT
p77
sa(dp78
Vlong_name
p79
V31015
p80
sVtypes
p81
(lp82
Vpostal_code
p83
asVshort_name
p84
V31015
p85
sasVpartial_match
p86
I01
sVtypes
p87
(lp88
Vestablishment
p89
aVpoint_of_interest
p90
as.